; Function Attrs: nounwind uwtable
define void @SCT_set0_signature(ptr noundef captures(none) initializes((80, 88), (96, 100)) %0, ptr noundef %1, i64 noundef %2) local_unnamed_addr #0 {
  %4 = getelementptr inbounds nuw i8, ptr %0, i64 72
  %5 = load ptr, ptr %4, align 8, !tbaa !14
  tail call void @CRYPTO_free(ptr noundef %5, ptr noundef nonnull @.str, i32 noundef 165) #7
  store ptr %1, ptr %4, align 8, !tbaa !14
  %6 = getelementptr inbounds nuw i8, ptr %0, i64 80
  store i64 %2, ptr %6, align 8, !tbaa !22
  %7 = getelementptr inbounds nuw i8, ptr %0, i64 96
  store i32 0, ptr %7, align 8, !tbaa !16
  ret void
}